target datalayout = "e-m:e-p270:32:32-p271:32:32-p272:64:64-i64:64-i128:128-f80:128-n8:16:32:64-S128"
target triple = "x86_64-pc-linux-gnu"

%struct.lbmpdm_tcp_tag_entry_t = type { ptr, i32, i32 }

@.str.25 = private unnamed_addr constant [24 x i8] c"Tag name can't be empty\00", align 1

; Function Attrs: null_pointer_is_valid sspstrong uwtable
define internal zeroext i1 @lbmpdm_tcp_tag_update_cb(ptr noundef %0, ptr noundef %1) #0 {
  %3 = alloca i1, align 1
  %4 = alloca ptr, align 8
  %5 = alloca ptr, align 8
  %6 = alloca ptr, align 8
  %7 = alloca i32, align 4
  store ptr %0, ptr %4, align 8
  store ptr %1, ptr %5, align 8
  call void @llvm.lifetime.start.p0(i64 8, ptr %6) #9
  %8 = load ptr, ptr %4, align 8
  store ptr %8, ptr %6, align 8
  %9 = load ptr, ptr %6, align 8
  %10 = getelementptr inbounds nuw %struct.lbmpdm_tcp_tag_entry_t, ptr %9, i32 0, i32 0
  %11 = load ptr, ptr %10, align 8
  %12 = icmp eq ptr %11, null
  br i1 %12, label %13, label %16

13:                                               ; preds = %2
  %14 = call noalias ptr @g_strdup(ptr noundef @.str.25)
  %15 = load ptr, ptr %5, align 8
  store ptr %14, ptr %15, align 8
  store i1 false, ptr %3, align 1
  store i32 1, ptr %7, align 4
  br label %34

16:                                               ; preds = %2
  %17 = load ptr, ptr %6, align 8
  %18 = getelementptr inbounds nuw %struct.lbmpdm_tcp_tag_entry_t, ptr %17, i32 0, i32 0
  %19 = load ptr, ptr %18, align 8
  %20 = call ptr @g_strchug(ptr noundef %19)
  %21 = call ptr @g_strchomp(ptr noundef %20)
  %22 = load ptr, ptr %6, align 8
  %23 = getelementptr inbounds nuw %struct.lbmpdm_tcp_tag_entry_t, ptr %22, i32 0, i32 0
  %24 = load ptr, ptr %23, align 8
  %25 = getelementptr i8, ptr %24, i64 0
  %26 = load i8, ptr %25, align 1
  %27 = sext i8 %26 to i32
  %28 = icmp eq i32 %27, 0
  br i1 %28, label %29, label %32

29:                                               ; preds = %16
  %30 = call noalias ptr @g_strdup(ptr noundef @.str.25)
  %31 = load ptr, ptr %5, align 8
  store ptr %30, ptr %31, align 8
  store i1 false, ptr %3, align 1
  store i32 1, ptr %7, align 4
  br label %34

32:                                               ; preds = %16
  br label %33

33:                                               ; preds = %32
  store i1 true, ptr %3, align 1
  store i32 1, ptr %7, align 4
  br label %34

34:                                               ; preds = %33, %29, %13
  call void @llvm.lifetime.end.p0(i64 8, ptr %6) #9
  %35 = load i1, ptr %3, align 1
  ret i1 %35
}